(dp1
S'failed'
p2
(lp3
S'19'
p4
aS'22'
p5
aS'24'
p6
aS'29'
p7
aS'30'
p8
aS'37'
p9
aS'38'
p10
aS'39'
p11
aS'40'
p12
asS'source_names'
p13
(lp14
S'.'
asS'ids'
p15
(dp16
I1
(S'/mnt/tigrlab/projects/dawn/current/datman/tests/test_checklist.py'
S'test_checklist'
p17
S'test_load_empty_checklist'
tp18
sI2
(S'/mnt/tigrlab/projects/dawn/current/datman/tests/test_checklist.py'
g17
S'test_empty_checklist_is_blacklisted'
tp19
sI3
(S'/mnt/tigrlab/projects/dawn/current/datman/tests/test_checklist.py'
g17
S'test_empty_checklist_blacklist_add_new_stage'
tp20
sI4
(S'/mnt/tigrlab/projects/dawn/current/datman/tests/test_checklist.py'
g17
S'test_empty_checklist_blacklist_remove_new_stage'
tp21
sI5
(S'/mnt/tigrlab/projects/dawn/current/datman/tests/test_checklist.py'
g17
S'test_add_remove_to_empty_blacklist'
tp22
sI6
(S'/mnt/tigrlab/projects/dawn/current/datman/tests/test_checklist.py'
g17
S'test_remove_from_empty_blacklist'
tp23
sI7
(S'/mnt/tigrlab/projects/dawn/current/datman/tests/test_checklist.py'
g17
S'test_save_load_checklist'
tp24
sI8
(S'/mnt/tigrlab/projects/dawn/current/datman/tests/test_checklist.py'
g17
S'test_load_format_error_empty_blacklist_stage'
tp25
sI9
(S'/mnt/tigrlab/projects/dawn/current/datman/tests/test_checklist.py'
g17
S'test_load_format_error_non_dict_parent'
tp26
sI10
(S'/mnt/tigrlab/projects/dawn/current/datman/tests/test_checklist.py'
g17
S'test_blacklist_existing_series_format_error'
tp27
sI11
(S'/mnt/tigrlab/projects/dawn/current/datman/tests/test_checklist.py'
g17
S'test_load_and_blacklist_new_stage'
tp28
sI12
(S'/mnt/tigrlab/projects/dawn/current/datman/tests/test_datman_scanid.py'
S'test_datman_scanid'
p29
S'test_parse_empty'
tp30
sI13
(S'/mnt/tigrlab/projects/dawn/current/datman/tests/test_datman_scanid.py'
g29
S'test_parse_None'
tp31
sI14
(S'/mnt/tigrlab/projects/dawn/current/datman/tests/test_datman_scanid.py'
g29
S'test_parse_garbage'
tp32
sI15
(S'/mnt/tigrlab/projects/dawn/current/datman/tests/test_datman_scanid.py'
g29
S'test_parse_good_scanid'
tp33
sI16
(S'/mnt/tigrlab/projects/dawn/current/datman/tests/test_datman_scanid.py'
g29
S'test_scanid_to_string'
tp34
sI17
(S'/mnt/tigrlab/projects/dawn/current/datman/tests/test_datman_scanid.py'
g29
S'test_is_scanid_garbage'
tp35
sI18
(S'/mnt/tigrlab/projects/dawn/current/datman/tests/test_datman_scanid.py'
g29
S'test_is_scanid_subjectid_only'
tp36
sI19
(S'/mnt/tigrlab/projects/dawn/current/datman/tests/test_datman_scanid.py'
g29
S'test_is_scanid_extra_fields'
tp37
sI20
(S'/mnt/tigrlab/projects/dawn/current/datman/tests/test_datman_scanid.py'
g29
S'test_is_scanid_good'
tp38
sI21
(S'/mnt/tigrlab/projects/dawn/current/datman/tests/test_datman_scanid.py'
g29
S'test_get_full_subjectid'
tp39
sI22
(S'/mnt/tigrlab/projects/dawn/current/datman/tests/test_datman_scanid.py'
g29
S'test_parse_PHA_scanid'
tp40
sI23
(S'/mnt/tigrlab/projects/dawn/current/datman/tests/test_datman_scanid.py'
g29
S'test_subject_id_with_timepoint'
tp41
sI24
(S'/mnt/tigrlab/projects/dawn/current/datman/tests/test_datman_scanid.py'
g29
S'test_PHA_timepoint'
tp42
sI25
(S'/mnt/tigrlab/projects/dawn/current/datman/tests/test_datman_scanid.py'
g29
S'test_parse_filename'
tp43
sI26
(S'/mnt/tigrlab/projects/dawn/current/datman/tests/test_datman_scanid.py'
g29
S'test_parse_filename_PHA'
tp44
sI27
(S'/mnt/tigrlab/projects/dawn/current/datman/tests/test_datman_scanid.py'
g29
S'test_parse_filename_PHA_2'
tp45
sI28
(S'/mnt/tigrlab/projects/dawn/current/datman/tests/test_datman_scanid.py'
g29
S'test_parse_filename_with_path'
tp46
sI29
(S'/mnt/tigrlab/projects/dawn/current/datman/tests/test_dm-check-bvecs.py'
S'test_dm-check-bvecs'
Ntp47
sI30
(S'/mnt/tigrlab/projects/dawn/current/datman/tests/test_dm-check-headers.py'
S'test_dm-check-headers'
Ntp48
sI31
(S'/mnt/tigrlab/projects/dawn/current/datman/tests/test_dm-proc-freesurfer.py'
S'test_dm-proc-freesurfer'
p49
S'test_get_qced_subjects'
p50
tp51
sI32
(S'/mnt/tigrlab/projects/dawn/current/datman/tests/test_dm-proc-freesurfer.py'
g49
S'test_get_qced_subject_list_exits_with_nonexistent_checklist'
p52
tp53
sI33
(S'/mnt/tigrlab/projects/dawn/current/datman/tests/test_dm-proc-freesurfer.py'
g49
S'test_get_subject_list_removes_phantoms'
p54
tp55
sI34
(S'/mnt/tigrlab/projects/dawn/current/datman/tests/test_dm-proc-freesurfer.py'
g49
S'test_get_subject_list_removes_nonphantom_PHA_subid'
p56
tp57
sI35
(S'/mnt/tigrlab/projects/dawn/current/datman/tests/test_dm-proc-freesurfer.py'
g49
S'test_get_subject_list_tag2_returns_only_tagged_subjects'
p58
tp59
sI36
(S'/mnt/tigrlab/projects/dawn/current/datman/tests/test_dm-proc-freesurfer.py'
g49
S'test_get_subject_list_QC_file_returns_only_qced_subjects'
p60
tp61
sI37
(S'/mnt/tigrlab/projects/dawn/current/datman/tests/test_dm-proc-freesurfer.py'
g49
S'test_make_Freesurfer_runsh_default_options'
tp62
sI38
(S'/mnt/tigrlab/projects/dawn/current/datman/tests/test_dm-proc-freesurfer.py'
g49
S'test_make_Freesurfer_runsh_FS_options_respected'
tp63
sI39
(S'/mnt/tigrlab/projects/dawn/current/datman/tests/test_dm-proc-freesurfer.py'
g49
S'test_make_Freesurfer_postsh'
tp64
sI40
(S'/mnt/tigrlab/projects/dawn/current/datman/tests/test_dm-proc-freesurfer.py'
g49
S'test_check_runsh_does_nothing_if_options_unchanged'
tp65
sI41
(S'/mnt/tigrlab/projects/dawn/current/datman/tests/test_dm-proc-freesurfer.py'
g49
S'test_check_runsh_raises_exit_if_options_changed'
tp66
sI42
(S'/mnt/tigrlab/projects/dawn/current/datman/tests/test_dm-proc-freesurfer.py'
g49
S'test_get_run_script_names'
tp67
sI43
(S'/mnt/tigrlab/projects/dawn/current/datman/tests/test_dm-proc-freesurfer.py'
g49
S'test_add_new_subjects_to_checklist'
p68
tp69
sI44
(S'/mnt/tigrlab/projects/dawn/current/datman/tests/test_dm-proc-freesurfer.py'
g49
S'test_update_T1_images_finds_T1s'
tp70
sI45
(S'/mnt/tigrlab/projects/dawn/current/datman/tests/test_dm-proc-freesurfer.py'
g49
S'test_find_T1_images_finds_TAG2_T1s'
tp71
sI46
(S'/mnt/tigrlab/projects/dawn/current/datman/tests/test_dm-proc-freesurfer.py'
g49
S'test_update_T1_images_respects_MULTI_tag'
tp72
sI47
(S'/mnt/tigrlab/projects/dawn/current/datman/tests/test_proc.py'
S'test_proc'
p73
g50
tp74
sI48
(S'/mnt/tigrlab/projects/dawn/current/datman/tests/test_proc.py'
g73
g52
tp75
sI49
(S'/mnt/tigrlab/projects/dawn/current/datman/tests/test_proc.py'
g73
g54
tp76
sI50
(S'/mnt/tigrlab/projects/dawn/current/datman/tests/test_proc.py'
g73
g56
tp77
sI51
(S'/mnt/tigrlab/projects/dawn/current/datman/tests/test_proc.py'
g73
g58
tp78
sI52
(S'/mnt/tigrlab/projects/dawn/current/datman/tests/test_proc.py'
g73
g60
tp79
sI53
(S'/mnt/tigrlab/projects/dawn/current/datman/tests/test_proc.py'
g73
g68
tp80
sI54
(S'/mnt/tigrlab/projects/dawn/current/datman/tests/test_proc.py'
g73
S'test_find_images_finds_T1s'
tp81
sI55
(S'/mnt/tigrlab/projects/dawn/current/datman/tests/test_proc.py'
g73
S'test_find_images_finds_subject_filtered_T1s'
tp82
sI56
(S'/mnt/tigrlab/projects/dawn/current/datman/tests/test_proc.py'
g73
S'test_find_images_finds_image_filtered_T1s'
tp83
sI57
(S'/mnt/tigrlab/projects/dawn/current/datman/tests/test_proc.py'
g73
S'test_find_images_allows_multiple_images'
tp84
ss.